target datalayout = "e-m:e-p270:32:32-p271:32:32-p272:64:64-i64:64-i128:128-f80:128-n8:16:32:64-S128"
target triple = "x86_64-pc-linux-gnu"

%struct._tokenizer_mode = type { i32, i32, i32, i8, i32, i32, ptr, ptr, i32, i64, i64, i64, i64, ptr, i32, i32 }
%struct.tok_state = type { ptr, ptr, ptr, i32, ptr, ptr, ptr, ptr, i32, ptr, i32, i32, [100 x i32], i32, i32, ptr, ptr, i32, i32, i32, i32, i32, [200 x i8], [200 x i32], [200 x i32], ptr, [100 x i32], i32, i32, ptr, i32, ptr, ptr, ptr, ptr, ptr, ptr, ptr, ptr, i32, i32, ptr, i32, [150 x %struct._tokenizer_mode], i32, i32, i32, i32 }

; Function Attrs: nounwind uwtable
define hidden ptr @_PyTokenizer_tok_new() #0 {
  %1 = alloca ptr, align 8
  %2 = alloca ptr, align 8
  %3 = alloca i32, align 4
  %4 = alloca %struct._tokenizer_mode, align 8
  call void @llvm.lifetime.start.p0(i64 8, ptr %2) #7
  %5 = call ptr @PyMem_Calloc(i64 noundef 1, i64 noundef 17272)
  store ptr %5, ptr %2, align 8, !tbaa !4
  %6 = load ptr, ptr %2, align 8, !tbaa !4
  %7 = icmp eq ptr %6, null
  br i1 %7, label %8, label %9

8:                                                ; preds = %0
  store ptr null, ptr %1, align 8
  store i32 1, ptr %3, align 4
  br label %99

9:                                                ; preds = %0
  %10 = load ptr, ptr %2, align 8, !tbaa !4
  %11 = getelementptr inbounds nuw %struct.tok_state, ptr %10, i32 0, i32 2
  store ptr null, ptr %11, align 8, !tbaa !9
  %12 = load ptr, ptr %2, align 8, !tbaa !4
  %13 = getelementptr inbounds nuw %struct.tok_state, ptr %12, i32 0, i32 1
  store ptr null, ptr %13, align 8, !tbaa !15
  %14 = load ptr, ptr %2, align 8, !tbaa !4
  %15 = getelementptr inbounds nuw %struct.tok_state, ptr %14, i32 0, i32 0
  store ptr null, ptr %15, align 8, !tbaa !16
  %16 = load ptr, ptr %2, align 8, !tbaa !4
  %17 = getelementptr inbounds nuw %struct.tok_state, ptr %16, i32 0, i32 3
  store i32 0, ptr %17, align 8, !tbaa !17
  %18 = load ptr, ptr %2, align 8, !tbaa !4
  %19 = getelementptr inbounds nuw %struct.tok_state, ptr %18, i32 0, i32 4
  store ptr null, ptr %19, align 8, !tbaa !18
  %20 = load ptr, ptr %2, align 8, !tbaa !4
  %21 = getelementptr inbounds nuw %struct.tok_state, ptr %20, i32 0, i32 5
  store ptr null, ptr %21, align 8, !tbaa !19
  %22 = load ptr, ptr %2, align 8, !tbaa !4
  %23 = getelementptr inbounds nuw %struct.tok_state, ptr %22, i32 0, i32 7
  store ptr null, ptr %23, align 8, !tbaa !20
  %24 = load ptr, ptr %2, align 8, !tbaa !4
  %25 = getelementptr inbounds nuw %struct.tok_state, ptr %24, i32 0, i32 6
  store ptr null, ptr %25, align 8, !tbaa !21
  %26 = load ptr, ptr %2, align 8, !tbaa !4
  %27 = getelementptr inbounds nuw %struct.tok_state, ptr %26, i32 0, i32 8
  store i32 10, ptr %27, align 8, !tbaa !22
  %28 = load ptr, ptr %2, align 8, !tbaa !4
  %29 = getelementptr inbounds nuw %struct.tok_state, ptr %28, i32 0, i32 9
  store ptr null, ptr %29, align 8, !tbaa !23
  %30 = load ptr, ptr %2, align 8, !tbaa !4
  %31 = getelementptr inbounds nuw %struct.tok_state, ptr %30, i32 0, i32 38
  store ptr null, ptr %31, align 8, !tbaa !24
  %32 = load ptr, ptr %2, align 8, !tbaa !4
  %33 = getelementptr inbounds nuw %struct.tok_state, ptr %32, i32 0, i32 10
  store i32 8, ptr %33, align 8, !tbaa !25
  %34 = load ptr, ptr %2, align 8, !tbaa !4
  %35 = getelementptr inbounds nuw %struct.tok_state, ptr %34, i32 0, i32 11
  store i32 0, ptr %35, align 4, !tbaa !26
  %36 = load ptr, ptr %2, align 8, !tbaa !4
  %37 = getelementptr inbounds nuw %struct.tok_state, ptr %36, i32 0, i32 12
  %38 = getelementptr [100 x i32], ptr %37, i64 0, i64 0
  store i32 0, ptr %38, align 8, !tbaa !27
  %39 = load ptr, ptr %2, align 8, !tbaa !4
  %40 = getelementptr inbounds nuw %struct.tok_state, ptr %39, i32 0, i32 13
  store i32 1, ptr %40, align 8, !tbaa !28
  %41 = load ptr, ptr %2, align 8, !tbaa !4
  %42 = getelementptr inbounds nuw %struct.tok_state, ptr %41, i32 0, i32 14
  store i32 0, ptr %42, align 4, !tbaa !29
  %43 = load ptr, ptr %2, align 8, !tbaa !4
  %44 = getelementptr inbounds nuw %struct.tok_state, ptr %43, i32 0, i32 16
  store ptr null, ptr %44, align 8, !tbaa !30
  %45 = load ptr, ptr %2, align 8, !tbaa !4
  %46 = getelementptr inbounds nuw %struct.tok_state, ptr %45, i32 0, i32 15
  store ptr null, ptr %46, align 8, !tbaa !31
  %47 = load ptr, ptr %2, align 8, !tbaa !4
  %48 = getelementptr inbounds nuw %struct.tok_state, ptr %47, i32 0, i32 17
  store i32 0, ptr %48, align 8, !tbaa !32
  %49 = load ptr, ptr %2, align 8, !tbaa !4
  %50 = getelementptr inbounds nuw %struct.tok_state, ptr %49, i32 0, i32 19
  store i32 -1, ptr %50, align 8, !tbaa !33
  %51 = load ptr, ptr %2, align 8, !tbaa !4
  %52 = getelementptr inbounds nuw %struct.tok_state, ptr %51, i32 0, i32 20
  store i32 -1, ptr %52, align 4, !tbaa !34
  %53 = load ptr, ptr %2, align 8, !tbaa !4
  %54 = getelementptr inbounds nuw %struct.tok_state, ptr %53, i32 0, i32 21
  store i32 0, ptr %54, align 8, !tbaa !35
  %55 = load ptr, ptr %2, align 8, !tbaa !4
  %56 = getelementptr inbounds nuw %struct.tok_state, ptr %55, i32 0, i32 26
  %57 = getelementptr [100 x i32], ptr %56, i64 0, i64 0
  store i32 0, ptr %57, align 8, !tbaa !27
  %58 = load ptr, ptr %2, align 8, !tbaa !4
  %59 = getelementptr inbounds nuw %struct.tok_state, ptr %58, i32 0, i32 27
  store i32 0, ptr %59, align 8, !tbaa !36
  %60 = load ptr, ptr %2, align 8, !tbaa !4
  %61 = getelementptr inbounds nuw %struct.tok_state, ptr %60, i32 0, i32 28
  store i32 0, ptr %61, align 4, !tbaa !37
  %62 = load ptr, ptr %2, align 8, !tbaa !4
  %63 = getelementptr inbounds nuw %struct.tok_state, ptr %62, i32 0, i32 36
  store ptr null, ptr %63, align 8, !tbaa !38
  %64 = load ptr, ptr %2, align 8, !tbaa !4
  %65 = getelementptr inbounds nuw %struct.tok_state, ptr %64, i32 0, i32 29
  store ptr null, ptr %65, align 8, !tbaa !39
  %66 = load ptr, ptr %2, align 8, !tbaa !4
  %67 = getelementptr inbounds nuw %struct.tok_state, ptr %66, i32 0, i32 30
  store i32 0, ptr %67, align 8, !tbaa !40
  %68 = load ptr, ptr %2, align 8, !tbaa !4
  %69 = getelementptr inbounds nuw %struct.tok_state, ptr %68, i32 0, i32 25
  store ptr null, ptr %69, align 8, !tbaa !41
  %70 = load ptr, ptr %2, align 8, !tbaa !4
  %71 = getelementptr inbounds nuw %struct.tok_state, ptr %70, i32 0, i32 33
  store ptr null, ptr %71, align 8, !tbaa !42
  %72 = load ptr, ptr %2, align 8, !tbaa !4
  %73 = getelementptr inbounds nuw %struct.tok_state, ptr %72, i32 0, i32 34
  store ptr null, ptr %73, align 8, !tbaa !43
  %74 = load ptr, ptr %2, align 8, !tbaa !4
  %75 = getelementptr inbounds nuw %struct.tok_state, ptr %74, i32 0, i32 35
  store ptr null, ptr %75, align 8, !tbaa !44
  %76 = load ptr, ptr %2, align 8, !tbaa !4
  %77 = getelementptr inbounds nuw %struct.tok_state, ptr %76, i32 0, i32 39
  store i32 0, ptr %77, align 8, !tbaa !45
  %78 = load ptr, ptr %2, align 8, !tbaa !4
  %79 = getelementptr inbounds nuw %struct.tok_state, ptr %78, i32 0, i32 40
  store i32 0, ptr %79, align 4, !tbaa !46
  %80 = load ptr, ptr %2, align 8, !tbaa !4
  %81 = getelementptr inbounds nuw %struct.tok_state, ptr %80, i32 0, i32 41
  store ptr null, ptr %81, align 8, !tbaa !47
  %82 = load ptr, ptr %2, align 8, !tbaa !4
  %83 = getelementptr inbounds nuw %struct.tok_state, ptr %82, i32 0, i32 37
  store ptr null, ptr %83, align 8, !tbaa !48
  %84 = load ptr, ptr %2, align 8, !tbaa !4
  %85 = getelementptr inbounds nuw %struct.tok_state, ptr %84, i32 0, i32 42
  store i32 1, ptr %85, align 8, !tbaa !49
  %86 = load ptr, ptr %2, align 8, !tbaa !4
  %87 = getelementptr inbounds nuw %struct.tok_state, ptr %86, i32 0, i32 45
  store i32 0, ptr %87, align 4, !tbaa !50
  %88 = load ptr, ptr %2, align 8, !tbaa !4
  %89 = getelementptr inbounds nuw %struct.tok_state, ptr %88, i32 0, i32 46
  store i32 0, ptr %89, align 8, !tbaa !51
  %90 = load ptr, ptr %2, align 8, !tbaa !4
  %91 = getelementptr inbounds nuw %struct.tok_state, ptr %90, i32 0, i32 47
  store i32 0, ptr %91, align 4, !tbaa !52
  %92 = load ptr, ptr %2, align 8, !tbaa !4
  %93 = getelementptr inbounds nuw %struct.tok_state, ptr %92, i32 0, i32 43
  %94 = getelementptr [150 x %struct._tokenizer_mode], ptr %93, i64 0, i64 0
  call void @llvm.memset.p0.i64(ptr align 8 %4, i8 0, i64 96, i1 false)
  %95 = getelementptr inbounds nuw %struct._tokenizer_mode, ptr %4, i32 0, i32 0
  store i32 0, ptr %95, align 8, !tbaa !53
  call void @llvm.memcpy.p0.p0.i64(ptr align 8 %94, ptr align 8 %4, i64 96, i1 false), !tbaa.struct !56
  %96 = load ptr, ptr %2, align 8, !tbaa !4
  %97 = getelementptr inbounds nuw %struct.tok_state, ptr %96, i32 0, i32 44
  store i32 0, ptr %97, align 8, !tbaa !60
  %98 = load ptr, ptr %2, align 8, !tbaa !4
  store ptr %98, ptr %1, align 8
  store i32 1, ptr %3, align 4
  br label %99

99:                                               ; preds = %9, %8
  call void @llvm.lifetime.end.p0(i64 8, ptr %2) #7
  %100 = load ptr, ptr %1, align 8
  ret ptr %100
}