; Function Attrs: nounwind uwtable
define hidden ptr @_PyTokenizer_tok_new() local_unnamed_addr #0 {
  %1 = tail call ptr @PyMem_Calloc(i64 noundef 1, i64 noundef 17272) #5
  %2 = icmp eq ptr %1, null
  br i1 %2, label %27, label %3

3:                                                ; preds = %0
  %4 = getelementptr inbounds nuw i8, ptr %1, i64 32
  %5 = getelementptr inbounds nuw i8, ptr %1, i64 64
  tail call void @llvm.memset.p0.i64(ptr noundef nonnull align 8 dereferenceable(28) %1, i8 0, i64 28, i1 false)
  tail call void @llvm.memset.p0.i64(ptr noundef nonnull align 8 dereferenceable(32) %4, i8 0, i64 32, i1 false)
  store i32 10, ptr %5, align 8, !tbaa !4
  %6 = getelementptr inbounds nuw i8, ptr %1, i64 72
  store ptr null, ptr %6, align 8, !tbaa !13
  %7 = getelementptr inbounds nuw i8, ptr %1, i64 2824
  store ptr null, ptr %7, align 8, !tbaa !14
  %8 = getelementptr inbounds nuw i8, ptr %1, i64 80
  store i32 8, ptr %8, align 8, !tbaa !15
  %9 = getelementptr inbounds nuw i8, ptr %1, i64 84
  store i32 0, ptr %9, align 4, !tbaa !16
  %10 = getelementptr inbounds nuw i8, ptr %1, i64 88
  store i32 0, ptr %10, align 8, !tbaa !17
  %11 = getelementptr inbounds nuw i8, ptr %1, i64 488
  store i32 1, ptr %11, align 8, !tbaa !18
  %12 = getelementptr inbounds nuw i8, ptr %1, i64 492
  %13 = getelementptr inbounds nuw i8, ptr %1, i64 520
  tail call void @llvm.memset.p0.i64(ptr noundef nonnull align 4 dereferenceable(24) %12, i8 0, i64 24, i1 false)
  store i32 -1, ptr %13, align 8, !tbaa !19
  %14 = getelementptr inbounds nuw i8, ptr %1, i64 524
  store i32 -1, ptr %14, align 4, !tbaa !20
  %15 = getelementptr inbounds nuw i8, ptr %1, i64 528
  store i32 0, ptr %15, align 8, !tbaa !21
  %16 = getelementptr inbounds nuw i8, ptr %1, i64 2344
  store i32 0, ptr %16, align 8, !tbaa !17
  %17 = getelementptr inbounds nuw i8, ptr %1, i64 2744
  %18 = getelementptr inbounds nuw i8, ptr %1, i64 2336
  store ptr null, ptr %18, align 8, !tbaa !22
  %19 = getelementptr inbounds nuw i8, ptr %1, i64 2784
  %20 = getelementptr inbounds nuw i8, ptr %1, i64 2832
  %21 = getelementptr inbounds nuw i8, ptr %1, i64 2848
  tail call void @llvm.memset.p0.i64(ptr noundef nonnull align 8 dereferenceable(20) %17, i8 0, i64 20, i1 false)
  tail call void @llvm.memset.p0.i64(ptr noundef nonnull align 8 dereferenceable(40) %19, i8 0, i64 40, i1 false)
  tail call void @llvm.memset.p0.i64(ptr noundef nonnull align 8 dereferenceable(16) %20, i8 0, i64 16, i1 false)
  store i32 1, ptr %21, align 8, !tbaa !23
  %22 = getelementptr inbounds nuw i8, ptr %1, i64 17260
  store i32 0, ptr %22, align 4, !tbaa !24
  %23 = getelementptr inbounds nuw i8, ptr %1, i64 17264
  store i32 0, ptr %23, align 8, !tbaa !25
  %24 = getelementptr inbounds nuw i8, ptr %1, i64 17268
  store i32 0, ptr %24, align 4, !tbaa !26
  %25 = getelementptr inbounds nuw i8, ptr %1, i64 2856
  %26 = getelementptr inbounds nuw i8, ptr %1, i64 17256
  store i32 0, ptr %26, align 8, !tbaa !27
  tail call void @llvm.memset.p0.i64(ptr noundef nonnull align 8 dereferenceable(96) %25, i8 0, i64 96, i1 false)
  br label %27

27:                                               ; preds = %0, %3
  ret ptr %1
}